target datalayout = "e-m:e-p270:32:32-p271:32:32-p272:64:64-i64:64-i128:128-f80:128-n8:16:32:64-S128"
target triple = "x86_64-pc-linux-gnu"

%struct.FormData_pg_authid = type { i32, %struct.nameData, i8, i8, i8, i8, i8, i8, i8, i32 }
%struct.nameData = type { [64 x i8] }
%struct.FormData_pg_database = type { i32, %struct.nameData, i32, i32, i8, i8, i8, i8, i32, i32, i32, i32 }
%struct.HeapTupleData = type { i32, %struct.ItemPointerData, i32, ptr }
%struct.ItemPointerData = type { %struct.BlockIdData, i16 }
%struct.BlockIdData = type { i16, i16 }
%struct.HeapTupleHeaderData = type { %union.anon.1, %struct.ItemPointerData, i16, i16, i8, [0 x i8] }
%union.anon.1 = type { %struct.HeapTupleFields }
%struct.HeapTupleFields = type { i32, i32, %union.anon.2 }
%union.anon.2 = type { i32 }
%struct.ObjectAddress = type { i32, i32, i32 }

@.str.18 = private unnamed_addr constant [13 x i8] c"dbcommands.c\00", align 1
@.str.72 = private unnamed_addr constant [29 x i8] c"database \22%s\22 already exists\00", align 1
@object_access_hook = external global ptr, align 8
@.str.79 = private unnamed_addr constant [29 x i8] c"database \22%s\22 does not exist\00", align 1
@MyDatabaseId = external global i32, align 4
@.str.89 = private unnamed_addr constant [47 x i8] c"database \22%s\22 is being accessed by other users\00", align 1
@.str.90 = private unnamed_addr constant [36 x i8] c"cache lookup failed for database %u\00", align 1
@__func__.RenameDatabase = private unnamed_addr constant [15 x i8] c"RenameDatabase\00", align 1
@.str.91 = private unnamed_addr constant [37 x i8] c"permission denied to rename database\00", align 1
@.str.92 = private unnamed_addr constant [35 x i8] c"current database cannot be renamed\00", align 1

; Function Attrs: inlinehint nounwind uwtable
define internal ptr @GETSTRUCT(ptr noundef %0) #7 {
  %2 = alloca ptr, align 8
  store ptr %0, ptr %2, align 8
  %3 = load ptr, ptr %2, align 8
  %4 = getelementptr inbounds nuw %struct.HeapTupleData, ptr %3, i32 0, i32 3
  %5 = load ptr, ptr %4, align 8
  %6 = load ptr, ptr %2, align 8
  %7 = getelementptr inbounds nuw %struct.HeapTupleData, ptr %6, i32 0, i32 3
  %8 = load ptr, ptr %7, align 8
  %9 = getelementptr inbounds nuw %struct.HeapTupleHeaderData, ptr %8, i32 0, i32 4
  %10 = load i8, ptr %9, align 2
  %11 = zext i8 %10 to i32
  %12 = sext i32 %11 to i64
  %13 = getelementptr inbounds i8, ptr %5, i64 %12
  ret ptr %13
}

; Function Attrs: inlinehint nounwind uwtable
define internal i64 @ObjectIdGetDatum(i32 noundef %0) #7 {
  %2 = alloca i32, align 4
  store i32 %0, ptr %2, align 4
  %3 = load i32, ptr %2, align 4
  %4 = zext i32 %3 to i64
  ret i64 %4
}

; Function Attrs: nounwind uwtable
define dso_local zeroext i1 @have_createdb_privilege() #0 {
  %1 = alloca i1, align 1
  %2 = alloca i8, align 1
  %3 = alloca ptr, align 8
  %4 = alloca i32, align 4
  call void @llvm.lifetime.start.p0(i64 1, ptr %2) #14
  store i8 0, ptr %2, align 1
  call void @llvm.lifetime.start.p0(i64 8, ptr %3) #14
  %5 = call zeroext i1 @superuser()
  br i1 %5, label %6, label %7

6:                                                ; preds = %0
  store i1 true, ptr %1, align 1
  store i32 1, ptr %4, align 4
  br label %24

7:                                                ; preds = %0
  %8 = call i32 @GetUserId()
  %9 = call i64 @ObjectIdGetDatum(i32 noundef %8)
  %10 = call ptr @SearchSysCache1(i32 noundef 11, i64 noundef %9)
  store ptr %10, ptr %3, align 8
  %11 = load ptr, ptr %3, align 8
  %12 = icmp ne ptr %11, null
  br i1 %12, label %13, label %21

13:                                               ; preds = %7
  %14 = load ptr, ptr %3, align 8
  %15 = call ptr @GETSTRUCT(ptr noundef %14)
  %16 = getelementptr inbounds nuw %struct.FormData_pg_authid, ptr %15, i32 0, i32 5
  %17 = load i8, ptr %16, align 1, !range !4, !noundef !5
  %18 = trunc i8 %17 to i1
  %19 = zext i1 %18 to i8
  store i8 %19, ptr %2, align 1
  %20 = load ptr, ptr %3, align 8
  call void @ReleaseSysCache(ptr noundef %20)
  br label %21

21:                                               ; preds = %13, %7
  %22 = load i8, ptr %2, align 1, !range !4, !noundef !5
  %23 = trunc i8 %22 to i1
  store i1 %23, ptr %1, align 1
  store i32 1, ptr %4, align 4
  br label %24

24:                                               ; preds = %21, %6
  call void @llvm.lifetime.end.p0(i64 8, ptr %3) #14
  call void @llvm.lifetime.end.p0(i64 1, ptr %2) #14
  %25 = load i1, ptr %1, align 1
  ret i1 %25
}

; Function Attrs: nounwind uwtable
define dso_local { i64, i32 } @RenameDatabase(ptr noundef %0, ptr noundef %1) #0 {
  %3 = alloca %struct.ObjectAddress, align 4
  %4 = alloca ptr, align 8
  %5 = alloca ptr, align 8
  %6 = alloca i32, align 4
  %7 = alloca ptr, align 8
  %8 = alloca %struct.ItemPointerData, align 2
  %9 = alloca ptr, align 8
  %10 = alloca i32, align 4
  %11 = alloca i32, align 4
  %12 = alloca { i64, i32 }, align 8
  store ptr %0, ptr %4, align 8
  store ptr %1, ptr %5, align 8
  call void @llvm.lifetime.start.p0(i64 4, ptr %6) #14
  call void @llvm.lifetime.start.p0(i64 8, ptr %7) #14
  call void @llvm.lifetime.start.p0(i64 6, ptr %8) #14
  call void @llvm.lifetime.start.p0(i64 8, ptr %9) #14
  call void @llvm.lifetime.start.p0(i64 4, ptr %10) #14
  call void @llvm.lifetime.start.p0(i64 4, ptr %11) #14
  %13 = call ptr @table_open(i32 noundef 1262, i32 noundef 3)
  store ptr %13, ptr %9, align 8
  %14 = load ptr, ptr %4, align 8
  %15 = call zeroext i1 @get_db_info(ptr noundef %14, i32 noundef 8, ptr noundef %6, ptr noundef null, ptr noundef null, ptr noundef null, ptr noundef null, ptr noundef null, ptr noundef null, ptr noundef null, ptr noundef null, ptr noundef null, ptr noundef null, ptr noundef null, ptr noundef null, ptr noundef null, ptr noundef null)
  br i1 %15, label %29, label %16

16:                                               ; preds = %2
  br label %17

17:                                               ; preds = %16
  br i1 true, label %18, label %20

18:                                               ; preds = %17
  %19 = call zeroext i1 @errstart_cold(i32 noundef 21, ptr noundef null) #17
  br i1 %19, label %22, label %26

20:                                               ; preds = %17
  %21 = call zeroext i1 @errstart(i32 noundef 21, ptr noundef null)
  br i1 %21, label %22, label %26

22:                                               ; preds = %20, %18
  %23 = call i32 @errcode(i32 noundef 1283)
  %24 = load ptr, ptr %4, align 8
  %25 = call i32 (ptr, ...) @errmsg(ptr noundef @.str.79, ptr noundef %24)
  call void @errfinish(ptr noundef @.str.18, i32 noundef 1896, ptr noundef @__func__.RenameDatabase)
  br label %26

26:                                               ; preds = %22, %20, %18
  unreachable

27:                                               ; No predecessors!
  br label %28

28:                                               ; preds = %27
  br label %29

29:                                               ; preds = %28, %2
  %30 = load i32, ptr %6, align 4
  %31 = call i32 @GetUserId()
  %32 = call zeroext i1 @object_ownercheck(i32 noundef 1262, i32 noundef %30, i32 noundef %31)
  br i1 %32, label %35, label %33

33:                                               ; preds = %29
  %34 = load ptr, ptr %4, align 8
  call void @aclcheck_error(i32 noundef 2, i32 noundef 9, ptr noundef %34)
  br label %35

35:                                               ; preds = %33, %29
  %36 = call zeroext i1 @have_createdb_privilege()
  br i1 %36, label %49, label %37

37:                                               ; preds = %35
  br label %38

38:                                               ; preds = %37
  br i1 true, label %39, label %41

39:                                               ; preds = %38
  %40 = call zeroext i1 @errstart_cold(i32 noundef 21, ptr noundef null) #17
  br i1 %40, label %43, label %46

41:                                               ; preds = %38
  %42 = call zeroext i1 @errstart(i32 noundef 21, ptr noundef null)
  br i1 %42, label %43, label %46

43:                                               ; preds = %41, %39
  %44 = call i32 @errcode(i32 noundef 16797828)
  %45 = call i32 (ptr, ...) @errmsg(ptr noundef @.str.91)
  call void @errfinish(ptr noundef @.str.18, i32 noundef 1907, ptr noundef @__func__.RenameDatabase)
  br label %46

46:                                               ; preds = %43, %41, %39
  unreachable

47:                                               ; No predecessors!
  br label %48

48:                                               ; preds = %47
  br label %49

49:                                               ; preds = %48, %35
  %50 = load ptr, ptr %5, align 8
  %51 = call i32 @get_database_oid(ptr noundef %50, i1 noundef zeroext true)
  %52 = icmp ne i32 %51, 0
  br i1 %52, label %53, label %66

53:                                               ; preds = %49
  br label %54

54:                                               ; preds = %53
  br i1 true, label %55, label %57

55:                                               ; preds = %54
  %56 = call zeroext i1 @errstart_cold(i32 noundef 21, ptr noundef null) #17
  br i1 %56, label %59, label %63

57:                                               ; preds = %54
  %58 = call zeroext i1 @errstart(i32 noundef 21, ptr noundef null)
  br i1 %58, label %59, label %63

59:                                               ; preds = %57, %55
  %60 = call i32 @errcode(i32 noundef 67240068)
  %61 = load ptr, ptr %5, align 8
  %62 = call i32 (ptr, ...) @errmsg(ptr noundef @.str.72, ptr noundef %61)
  call void @errfinish(ptr noundef @.str.18, i32 noundef 1925, ptr noundef @__func__.RenameDatabase)
  br label %63

63:                                               ; preds = %59, %57, %55
  unreachable

64:                                               ; No predecessors!
  br label %65

65:                                               ; preds = %64
  br label %66

66:                                               ; preds = %65, %49
  %67 = load i32, ptr %6, align 4
  %68 = load i32, ptr @MyDatabaseId, align 4
  %69 = icmp eq i32 %67, %68
  br i1 %69, label %70, label %82

70:                                               ; preds = %66
  br label %71

71:                                               ; preds = %70
  br i1 true, label %72, label %74

72:                                               ; preds = %71
  %73 = call zeroext i1 @errstart_cold(i32 noundef 21, ptr noundef null) #17
  br i1 %73, label %76, label %79

74:                                               ; preds = %71
  %75 = call zeroext i1 @errstart(i32 noundef 21, ptr noundef null)
  br i1 %75, label %76, label %79

76:                                               ; preds = %74, %72
  %77 = call i32 @errcode(i32 noundef 1088)
  %78 = call i32 (ptr, ...) @errmsg(ptr noundef @.str.92)
  call void @errfinish(ptr noundef @.str.18, i32 noundef 1936, ptr noundef @__func__.RenameDatabase)
  br label %79

79:                                               ; preds = %76, %74, %72
  unreachable

80:                                               ; No predecessors!
  br label %81

81:                                               ; preds = %80
  br label %82

82:                                               ; preds = %81, %66
  %83 = load i32, ptr %6, align 4
  %84 = call zeroext i1 @CountOtherDBBackends(i32 noundef %83, ptr noundef %10, ptr noundef %11)
  br i1 %84, label %85, label %101

85:                                               ; preds = %82
  br label %86

86:                                               ; preds = %85
  br i1 true, label %87, label %89

87:                                               ; preds = %86
  %88 = call zeroext i1 @errstart_cold(i32 noundef 21, ptr noundef null) #17
  br i1 %88, label %91, label %98

89:                                               ; preds = %86
  %90 = call zeroext i1 @errstart(i32 noundef 21, ptr noundef null)
  br i1 %90, label %91, label %98

91:                                               ; preds = %89, %87
  %92 = call i32 @errcode(i32 noundef 100663621)
  %93 = load ptr, ptr %4, align 8
  %94 = call i32 (ptr, ...) @errmsg(ptr noundef @.str.89, ptr noundef %93)
  %95 = load i32, ptr %10, align 4
  %96 = load i32, ptr %11, align 4
  %97 = call i32 @errdetail_busy_db(i32 noundef %95, i32 noundef %96)
  call void @errfinish(ptr noundef @.str.18, i32 noundef 1949, ptr noundef @__func__.RenameDatabase)
  br label %98

98:                                               ; preds = %91, %89, %87
  unreachable

99:                                               ; No predecessors!
  br label %100

100:                                              ; preds = %99
  br label %101

101:                                              ; preds = %100, %82
  %102 = load i32, ptr %6, align 4
  %103 = call i64 @ObjectIdGetDatum(i32 noundef %102)
  %104 = call ptr @SearchSysCacheLockedCopy1(i32 noundef 21, i64 noundef %103)
  store ptr %104, ptr %7, align 8
  %105 = load ptr, ptr %7, align 8
  %106 = icmp ne ptr %105, null
  br i1 %106, label %119, label %107

107:                                              ; preds = %101
  br label %108

108:                                              ; preds = %107
  br i1 true, label %109, label %111

109:                                              ; preds = %108
  %110 = call zeroext i1 @errstart_cold(i32 noundef 21, ptr noundef null) #17
  br i1 %110, label %113, label %116

111:                                              ; preds = %108
  %112 = call zeroext i1 @errstart(i32 noundef 21, ptr noundef null)
  br i1 %112, label %113, label %116

113:                                              ; preds = %111, %109
  %114 = load i32, ptr %6, align 4
  %115 = call i32 (ptr, ...) @errmsg_internal(ptr noundef @.str.90, i32 noundef %114)
  call void @errfinish(ptr noundef @.str.18, i32 noundef 1954, ptr noundef @__func__.RenameDatabase)
  br label %116

116:                                              ; preds = %113, %111, %109
  unreachable

117:                                              ; No predecessors!
  br label %118

118:                                              ; preds = %117
  br label %119

119:                                              ; preds = %118, %101
  %120 = load ptr, ptr %7, align 8
  %121 = getelementptr inbounds nuw %struct.HeapTupleData, ptr %120, i32 0, i32 1
  call void @llvm.memcpy.p0.p0.i64(ptr align 2 %8, ptr align 4 %121, i64 6, i1 false)
  %122 = load ptr, ptr %7, align 8
  %123 = call ptr @GETSTRUCT(ptr noundef %122)
  %124 = getelementptr inbounds nuw %struct.FormData_pg_database, ptr %123, i32 0, i32 1
  %125 = load ptr, ptr %5, align 8
  call void @namestrcpy(ptr noundef %124, ptr noundef %125)
  %126 = load ptr, ptr %9, align 8
  %127 = load ptr, ptr %7, align 8
  call void @CatalogTupleUpdate(ptr noundef %126, ptr noundef %8, ptr noundef %127)
  %128 = load ptr, ptr %9, align 8
  call void @UnlockTuple(ptr noundef %128, ptr noundef %8, i32 noundef 7)
  br label %129

129:                                              ; preds = %119
  %130 = load ptr, ptr @object_access_hook, align 8
  %131 = icmp ne ptr %130, null
  br i1 %131, label %132, label %134

132:                                              ; preds = %129
  %133 = load i32, ptr %6, align 4
  call void @RunObjectPostAlterHook(i32 noundef 1262, i32 noundef %133, i32 noundef 0, i32 noundef 0, i1 noundef zeroext false)
  br label %134

134:                                              ; preds = %132, %129
  br label %135

135:                                              ; preds = %134
  br label %136

136:                                              ; preds = %135
  br label %137

137:                                              ; preds = %136
  %138 = getelementptr inbounds nuw %struct.ObjectAddress, ptr %3, i32 0, i32 0
  store i32 1262, ptr %138, align 4
  %139 = load i32, ptr %6, align 4
  %140 = getelementptr inbounds nuw %struct.ObjectAddress, ptr %3, i32 0, i32 1
  store i32 %139, ptr %140, align 4
  %141 = getelementptr inbounds nuw %struct.ObjectAddress, ptr %3, i32 0, i32 2
  store i32 0, ptr %141, align 4
  br label %142

142:                                              ; preds = %137
  br label %143

143:                                              ; preds = %142
  %144 = load ptr, ptr %9, align 8
  call void @table_close(ptr noundef %144, i32 noundef 0)
  call void @llvm.lifetime.end.p0(i64 4, ptr %11) #14
  call void @llvm.lifetime.end.p0(i64 4, ptr %10) #14
  call void @llvm.lifetime.end.p0(i64 8, ptr %9) #14
  call void @llvm.lifetime.end.p0(i64 6, ptr %8) #14
  call void @llvm.lifetime.end.p0(i64 8, ptr %7) #14
  call void @llvm.lifetime.end.p0(i64 4, ptr %6) #14
  call void @llvm.memcpy.p0.p0.i64(ptr align 8 %12, ptr align 4 %3, i64 12, i1 false)
  %145 = load { i64, i32 }, ptr %12, align 8
  ret { i64, i32 } %145
}