; Function Attrs: nounwind uwtable
define dso_local { i64, i32 } @RenameDatabase(ptr noundef %0, ptr noundef %1) local_unnamed_addr #0 {
  %3 = alloca i32, align 4
  %4 = alloca %struct.ItemPointerData, align 2
  %5 = alloca i32, align 4
  %6 = alloca i32, align 4
  call void @llvm.lifetime.start.p0(i64 4, ptr nonnull %3) #16
  call void @llvm.lifetime.start.p0(i64 6, ptr nonnull %4) #16
  call void @llvm.lifetime.start.p0(i64 4, ptr nonnull %5) #16
  call void @llvm.lifetime.start.p0(i64 4, ptr nonnull %6) #16
  %7 = tail call ptr @table_open(i32 noundef 1262, i32 noundef 3) #16
  %8 = call fastcc zeroext i1 @get_db_info(ptr noundef %0, i32 noundef 8, ptr noundef %3, ptr noundef null, ptr noundef null, ptr noundef null, ptr noundef null, ptr noundef null, ptr noundef null, ptr noundef null, ptr noundef null, ptr noundef null, ptr noundef null, ptr noundef null, ptr noundef null, ptr noundef null, ptr noundef null)
  br i1 %8, label %13, label %9

9:                                                ; preds = %2
  %10 = tail call zeroext i1 @errstart_cold(i32 noundef 21, ptr noundef null) #19
  tail call void @llvm.assume(i1 %10)
  %11 = tail call i32 @errcode(i32 noundef 1283) #16
  %12 = tail call i32 (ptr, ...) @errmsg(ptr noundef nonnull @.str.79, ptr noundef %0) #16
  tail call void @errfinish(ptr noundef nonnull @.str.18, i32 noundef 1896, ptr noundef nonnull @__func__.RenameDatabase) #16
  unreachable

13:                                               ; preds = %2
  %14 = load i32, ptr %3, align 4
  %15 = tail call i32 @GetUserId() #16
  %16 = tail call zeroext i1 @object_ownercheck(i32 noundef 1262, i32 noundef %14, i32 noundef %15) #16
  br i1 %16, label %18, label %17

17:                                               ; preds = %13
  tail call void @aclcheck_error(i32 noundef 2, i32 noundef 9, ptr noundef %0) #16
  br label %18

18:                                               ; preds = %17, %13
  %19 = tail call zeroext i1 @superuser() #16
  br i1 %19, label %have_createdb_privilege.exit.thread, label %20

20:                                               ; preds = %18
  %21 = tail call i32 @GetUserId() #16
  %22 = zext i32 %21 to i64
  %23 = tail call ptr @SearchSysCache1(i32 noundef 11, i64 noundef %22) #16
  %.not.i = icmp eq ptr %23, null
  br i1 %.not.i, label %have_createdb_privilege.exit.thread20, label %have_createdb_privilege.exit

have_createdb_privilege.exit:                     ; preds = %20
  %24 = getelementptr i8, ptr %23, i64 16
  %.val.i = load ptr, ptr %24, align 8
  %25 = getelementptr inbounds nuw i8, ptr %.val.i, i64 22
  %26 = load i8, ptr %25, align 2
  %27 = zext i8 %26 to i64
  %28 = getelementptr inbounds nuw i8, ptr %.val.i, i64 %27
  %29 = getelementptr inbounds nuw i8, ptr %28, i64 71
  %30 = load i8, ptr %29, align 1, !range !4, !noundef !5
  tail call void @ReleaseSysCache(ptr noundef nonnull %23) #16
  %31 = trunc nuw i8 %30 to i1
  br i1 %31, label %have_createdb_privilege.exit.thread, label %have_createdb_privilege.exit.thread20

have_createdb_privilege.exit.thread20:            ; preds = %20, %have_createdb_privilege.exit
  %32 = tail call zeroext i1 @errstart_cold(i32 noundef 21, ptr noundef null) #19
  tail call void @llvm.assume(i1 %32)
  %33 = tail call i32 @errcode(i32 noundef 16797828) #16
  %34 = tail call i32 (ptr, ...) @errmsg(ptr noundef nonnull @.str.91) #16
  tail call void @errfinish(ptr noundef nonnull @.str.18, i32 noundef 1907, ptr noundef nonnull @__func__.RenameDatabase) #16
  unreachable

have_createdb_privilege.exit.thread:              ; preds = %18, %have_createdb_privilege.exit
  %35 = tail call i32 @get_database_oid(ptr noundef %1, i1 noundef zeroext true)
  %.not = icmp eq i32 %35, 0
  br i1 %.not, label %40, label %36

36:                                               ; preds = %have_createdb_privilege.exit.thread
  %37 = tail call zeroext i1 @errstart_cold(i32 noundef 21, ptr noundef null) #19
  tail call void @llvm.assume(i1 %37)
  %38 = tail call i32 @errcode(i32 noundef 67240068) #16
  %39 = tail call i32 (ptr, ...) @errmsg(ptr noundef nonnull @.str.72, ptr noundef %1) #16
  tail call void @errfinish(ptr noundef nonnull @.str.18, i32 noundef 1925, ptr noundef nonnull @__func__.RenameDatabase) #16
  unreachable

40:                                               ; preds = %have_createdb_privilege.exit.thread
  %41 = load i32, ptr @MyDatabaseId, align 4
  %42 = icmp eq i32 %14, %41
  br i1 %42, label %43, label %47

43:                                               ; preds = %40
  %44 = tail call zeroext i1 @errstart_cold(i32 noundef 21, ptr noundef null) #19
  tail call void @llvm.assume(i1 %44)
  %45 = tail call i32 @errcode(i32 noundef 1088) #16
  %46 = tail call i32 (ptr, ...) @errmsg(ptr noundef nonnull @.str.92) #16
  tail call void @errfinish(ptr noundef nonnull @.str.18, i32 noundef 1936, ptr noundef nonnull @__func__.RenameDatabase) #16
  unreachable

47:                                               ; preds = %40
  %48 = call zeroext i1 @CountOtherDBBackends(i32 noundef %14, ptr noundef nonnull %5, ptr noundef nonnull %6) #16
  br i1 %48, label %49, label %55

49:                                               ; preds = %47
  %50 = call zeroext i1 @errstart_cold(i32 noundef 21, ptr noundef null) #19
  call void @llvm.assume(i1 %50)
  %51 = call i32 @errcode(i32 noundef 100663621) #16
  %52 = call i32 (ptr, ...) @errmsg(ptr noundef nonnull @.str.89, ptr noundef %0) #16
  %53 = load i32, ptr %5, align 4
  %54 = load i32, ptr %6, align 4
  call fastcc void @errdetail_busy_db(i32 noundef %53, i32 noundef %54)
  call void @errfinish(ptr noundef nonnull @.str.18, i32 noundef 1949, ptr noundef nonnull @__func__.RenameDatabase) #16
  unreachable

55:                                               ; preds = %47
  %56 = zext i32 %14 to i64
  %57 = call ptr @SearchSysCacheLockedCopy1(i32 noundef 21, i64 noundef %56) #16
  %.not17 = icmp eq ptr %57, null
  br i1 %.not17, label %58, label %61

58:                                               ; preds = %55
  %59 = call zeroext i1 @errstart_cold(i32 noundef 21, ptr noundef null) #19
  call void @llvm.assume(i1 %59)
  %60 = call i32 (ptr, ...) @errmsg_internal(ptr noundef nonnull @.str.90, i32 noundef %14) #16
  call void @errfinish(ptr noundef nonnull @.str.18, i32 noundef 1954, ptr noundef nonnull @__func__.RenameDatabase) #16
  unreachable

61:                                               ; preds = %55
  %62 = getelementptr inbounds nuw i8, ptr %57, i64 4
  call void @llvm.memcpy.p0.p0.i64(ptr noundef nonnull align 2 dereferenceable(6) %4, ptr noundef nonnull align 4 dereferenceable(6) %62, i64 6, i1 false)
  %63 = getelementptr i8, ptr %57, i64 16
  %.val = load ptr, ptr %63, align 8
  %64 = getelementptr inbounds nuw i8, ptr %.val, i64 22
  %65 = load i8, ptr %64, align 2
  %66 = zext i8 %65 to i64
  %67 = getelementptr inbounds nuw i8, ptr %.val, i64 %66
  %68 = getelementptr inbounds nuw i8, ptr %67, i64 4
  call void @namestrcpy(ptr noundef nonnull %68, ptr noundef %1) #16
  call void @CatalogTupleUpdate(ptr noundef %7, ptr noundef nonnull %4, ptr noundef nonnull %57) #16
  call void @UnlockTuple(ptr noundef %7, ptr noundef nonnull %4, i32 noundef 7) #16
  %69 = load ptr, ptr @object_access_hook, align 8
  %.not18 = icmp eq ptr %69, null
  br i1 %.not18, label %71, label %70

70:                                               ; preds = %61
  call void @RunObjectPostAlterHook(i32 noundef 1262, i32 noundef %14, i32 noundef 0, i32 noundef 0, i1 noundef zeroext false) #16
  br label %71

71:                                               ; preds = %61, %70
  call void @table_close(ptr noundef %7, i32 noundef 0) #16
  call void @llvm.lifetime.end.p0(i64 4, ptr nonnull %6) #16
  call void @llvm.lifetime.end.p0(i64 4, ptr nonnull %5) #16
  call void @llvm.lifetime.end.p0(i64 6, ptr nonnull %4) #16
  call void @llvm.lifetime.end.p0(i64 4, ptr nonnull %3) #16
  %.sroa.215.0.insert.shift = shl nuw i64 %56, 32
  %.sroa.014.0.insert.insert = or disjoint i64 %.sroa.215.0.insert.shift, 1262
  %.fca.0.insert = insertvalue { i64, i32 } poison, i64 %.sroa.014.0.insert.insert, 0
  %.fca.1.insert = insertvalue { i64, i32 } %.fca.0.insert, i32 0, 1
  ret { i64, i32 } %.fca.1.insert
}